; Function Attrs: nounwind uwtable
define noalias noundef ptr @Acec_ParseSignatureOne(ptr noundef %0, ptr noundef readnone %1) local_unnamed_addr #0 {
  %3 = tail call noalias dereferenceable_or_null(16) ptr @malloc(i64 noundef 16) #25
  %4 = getelementptr inbounds nuw i8, ptr %3, i64 4
  store i32 0, ptr %4, align 4
  store i32 10, ptr %3, align 8
  %5 = tail call noalias dereferenceable_or_null(160) ptr @calloc(i64 noundef 10, i64 noundef 16) #26
  %6 = getelementptr inbounds nuw i8, ptr %3, i64 8
  store ptr %5, ptr %6, align 8
  %7 = load i8, ptr %0, align 1
  %.not15 = icmp eq i8 %7, 41
  br i1 %.not15, label %._crit_edge, label %.preheader

.preheader:                                       ; preds = %2, %12
  %.01316 = phi ptr [ %.0, %12 ], [ %0, %2 ]
  br label %8

8:                                                ; preds = %.preheader, %10
  %.013.pn = phi ptr [ %.0, %10 ], [ %.01316, %.preheader ]
  %.0 = getelementptr inbounds nuw i8, ptr %.013.pn, i64 1
  %9 = icmp ult ptr %.0, %1
  br i1 %9, label %10, label %12

10:                                               ; preds = %8
  %11 = load i8, ptr %.0, align 1
  switch i8 %11, label %8 [
    i8 43, label %12
    i8 45, label %12
  ], !llvm.loop !7

12:                                               ; preds = %10, %10, %8
  %13 = tail call fastcc ptr @Vec_WecPushLevel(ptr noundef nonnull %3)
  tail call void @Acec_ParseSignatureMono(ptr noundef nonnull %.01316, ptr noundef nonnull %.0, ptr noundef nonnull %13)
  %14 = load i8, ptr %.0, align 1
  %.not = icmp eq i8 %14, 41
  br i1 %.not, label %._crit_edge, label %.preheader, !llvm.loop !8

._crit_edge:                                      ; preds = %12, %2
  ret ptr %3
}